; Function Attrs: mustprogress uwtable
define dso_local void @_ZN9CGContextC2EP8FunctionRK6EffectPS2_(ptr noundef nonnull align 8 dereferenceable(216) initializes((0, 20), (24, 88)) %0, ptr noundef %1, ptr noundef nonnull align 8 dereferenceable(74) %2, ptr noundef %3) unnamed_addr #4 align 2 personality ptr @__gxx_personality_v0 {
  store ptr %1, ptr %0, align 8
  %5 = getelementptr inbounds nuw i8, ptr %0, i64 8
  store i32 0, ptr %5, align 8
  %6 = getelementptr inbounds nuw i8, ptr %0, i64 12
  store i32 0, ptr %6, align 4
  %7 = getelementptr inbounds nuw i8, ptr %0, i64 16
  store i32 0, ptr %7, align 8
  %8 = getelementptr inbounds nuw i8, ptr %0, i64 24
  %9 = getelementptr inbounds nuw i8, ptr %0, i64 72
  %10 = getelementptr inbounds nuw i8, ptr %0, i64 88
  tail call void @llvm.memset.p0.i64(ptr noundef nonnull align 8 dereferenceable(64) %8, i8 0, i64 64, i1 false)
  store ptr %9, ptr %10, align 8
  %11 = getelementptr inbounds nuw i8, ptr %0, i64 96
  store ptr %9, ptr %11, align 8
  %12 = getelementptr inbounds nuw i8, ptr %0, i64 104
  %13 = getelementptr inbounds nuw i8, ptr %0, i64 120
  tail call void @llvm.memset.p0.i64(ptr noundef nonnull align 8 dereferenceable(16) %12, i8 0, i64 16, i1 false)
  store ptr %2, ptr %13, align 8
  %14 = getelementptr inbounds nuw i8, ptr %0, i64 128
  store ptr %3, ptr %14, align 8
  %15 = getelementptr inbounds nuw i8, ptr %0, i64 136
  invoke void @_ZN6EffectC1Ev(ptr noundef nonnull align 8 dereferenceable(74) %15)
          to label %16 unwind label %17

16:                                               ; preds = %4
  ret void

17:                                               ; preds = %4
  %18 = landingpad { ptr, i32 }
          cleanup
  %19 = getelementptr inbounds nuw i8, ptr %0, i64 64
  tail call void @_ZNSt3mapIPK8VariablejSt4lessIS2_ESaISt4pairIKS2_jEEED2Ev(ptr noundef nonnull align 8 dereferenceable(48) %19) #20
  %20 = load ptr, ptr %8, align 8
  %.not.i.i.i = icmp eq ptr %20, null
  br i1 %.not.i.i.i, label %_ZNSt6vectorIPK5BlockSaIS2_EED2Ev.exit, label %21

21:                                               ; preds = %17
  tail call void @_ZdlPv(ptr noundef nonnull %20) #19
  br label %_ZNSt6vectorIPK5BlockSaIS2_EED2Ev.exit

_ZNSt6vectorIPK5BlockSaIS2_EED2Ev.exit:           ; preds = %17, %21
  resume { ptr, i32 } %18
}